; Function Attrs: mustprogress nofree norecurse nosync nounwind willreturn memory(readwrite, inaccessiblemem: none) uwtable
define noundef nonnull align 8 dereferenceable(8) ptr @_ZN3gmx15MdrunnerBuilder19addSimulationMethodERKNS_12MdrunOptionsEfNS_16StartingBehaviorE(ptr noundef nonnull readonly returned align 8 dereferenceable(8) %0, ptr noundef nonnull readonly align 8 captures(none) dereferenceable(56) %1, float noundef %2, i32 noundef %3) local_unnamed_addr #28 align 2 {
  %5 = load ptr, ptr %0, align 8, !tbaa !1246
  %6 = getelementptr inbounds nuw i8, ptr %5, i64 40
  tail call void @llvm.memcpy.p0.p0.i64(ptr noundef nonnull align 8 dereferenceable(56) %6, ptr noundef nonnull readonly align 8 dereferenceable(56) %1, i64 56, i1 false), !tbaa.struct !94
  %7 = getelementptr inbounds nuw i8, ptr %5, i64 200
  store float %2, ptr %7, align 8, !tbaa !1217
  %8 = getelementptr inbounds nuw i8, ptr %5, i64 204
  store i32 %3, ptr %8, align 4, !tbaa !1218
  ret ptr %0
}